; Function Attrs: mustprogress uwtable
define internal fastcc void @_ZL13resizeWindow_RKSt10shared_ptrI8CvWindowEii(ptr noundef nonnull readonly align 8 captures(none) dereferenceable(16) %0, i32 noundef %1, i32 noundef %2) unnamed_addr #3 personality ptr @__gxx_personality_v0 {
  %4 = alloca %"class.std::__cxx11::basic_string", align 8
  %5 = alloca %"class.std::allocator", align 1
  %6 = load ptr, ptr %0, align 8, !tbaa !48
  %.not = icmp eq ptr %6, null
  br i1 %.not, label %7, label %17

7:                                                ; preds = %3
  call void @llvm.lifetime.start.p0(i64 32, ptr nonnull %4) #31
  call void @llvm.lifetime.start.p0(i64 1, ptr nonnull %5) #31
  call void @_ZNSt7__cxx1112basic_stringIcSt11char_traitsIcESaIcEEC2EPKcRKS3_(ptr noundef nonnull align 8 dereferenceable(32) %4, ptr noundef nonnull @.str.9, ptr noundef nonnull align 1 dereferenceable(1) %5)
  invoke void @_ZN2cv5errorEiRKNSt7__cxx1112basic_stringIcSt11char_traitsIcESaIcEEEPKcS9_i(i32 noundef -215, ptr noundef nonnull align 8 dereferenceable(32) %4, ptr noundef nonnull @__func__._ZL13resizeWindow_RKSt10shared_ptrI8CvWindowEii, ptr noundef nonnull @.str.1, i32 noundef 1407) #32
          to label %8 unwind label %9

8:                                                ; preds = %7
  unreachable

9:                                                ; preds = %7
  %10 = landingpad { ptr, i32 }
          cleanup
  %11 = load ptr, ptr %4, align 8, !tbaa !7
  %12 = getelementptr inbounds nuw i8, ptr %4, i64 16
  %13 = icmp eq ptr %11, %12
  br i1 %13, label %_ZNKSt7__cxx1112basic_stringIcSt11char_traitsIcESaIcEE11_M_is_localEv.exit.thread.i.i, label %_ZNKSt7__cxx1112basic_stringIcSt11char_traitsIcESaIcEE11_M_is_localEv.exit.i.i

_ZNKSt7__cxx1112basic_stringIcSt11char_traitsIcESaIcEE11_M_is_localEv.exit.thread.i.i: ; preds = %9
  %14 = getelementptr inbounds nuw i8, ptr %4, i64 8
  %15 = load i64, ptr %14, align 8, !tbaa !12
  %16 = icmp ult i64 %15, 16
  call void @llvm.assume(i1 %16)
  br label %_ZNSt7__cxx1112basic_stringIcSt11char_traitsIcESaIcEED2Ev.exit

_ZNKSt7__cxx1112basic_stringIcSt11char_traitsIcESaIcEE11_M_is_localEv.exit.i.i: ; preds = %9
  call void @_ZdlPv(ptr noundef %11) #33
  br label %_ZNSt7__cxx1112basic_stringIcSt11char_traitsIcESaIcEED2Ev.exit

_ZNSt7__cxx1112basic_stringIcSt11char_traitsIcESaIcEED2Ev.exit: ; preds = %_ZNKSt7__cxx1112basic_stringIcSt11char_traitsIcESaIcEE11_M_is_localEv.exit.i.i, %_ZNKSt7__cxx1112basic_stringIcSt11char_traitsIcESaIcEE11_M_is_localEv.exit.thread.i.i
  call void @llvm.lifetime.end.p0(i64 1, ptr nonnull %5) #31
  call void @llvm.lifetime.end.p0(i64 32, ptr nonnull %4) #31
  resume { ptr, i32 } %10

17:                                               ; preds = %3
  %18 = getelementptr inbounds nuw i8, ptr %6, i64 8
  %19 = load ptr, ptr %18, align 8, !tbaa !71
  %20 = load i64, ptr @_ZZ22cvImageWidget_get_typevE10image_type, align 8, !tbaa !3
  %.not.i = icmp eq i64 %20, 0
  br i1 %.not.i, label %21, label %_Z22cvImageWidget_get_typev.exit

21:                                               ; preds = %17
  %22 = tail call i64 @gtk_widget_get_type() #30
  %23 = tail call i64 @g_type_register_static_simple(i64 noundef %22, ptr noundef nonnull @.str.2, i32 noundef 824, ptr noundef nonnull @_ZL24cvImageWidget_class_initPvS_, i32 noundef 56, ptr noundef nonnull @_ZL18cvImageWidget_initP14_GTypeInstancePv, i32 noundef 0)
  store i64 %23, ptr @_ZZ22cvImageWidget_get_typevE10image_type, align 8, !tbaa !3
  br label %_Z22cvImageWidget_get_typev.exit

_Z22cvImageWidget_get_typev.exit:                 ; preds = %17, %21
  %24 = phi i64 [ %23, %21 ], [ %20, %17 ]
  %25 = tail call ptr @g_type_check_instance_cast(ptr noundef %19, i64 noundef %24)
  %26 = load ptr, ptr %0, align 8, !tbaa !48
  %27 = getelementptr inbounds nuw i8, ptr %26, i64 16
  %28 = load ptr, ptr %27, align 8, !tbaa !84
  %29 = tail call i64 @gtk_window_get_type() #30
  %30 = tail call ptr @g_type_check_instance_cast(ptr noundef %28, i64 noundef %29)
  tail call void @gtk_window_set_resizable(ptr noundef %30, i32 noundef 1)
  %31 = load ptr, ptr %0, align 8, !tbaa !48
  %32 = getelementptr inbounds nuw i8, ptr %31, i64 16
  %33 = load ptr, ptr %32, align 8, !tbaa !84
  %34 = tail call ptr @g_type_check_instance_cast(ptr noundef %33, i64 noundef %29)
  tail call void @gtk_window_resize(ptr noundef %34, i32 noundef %1, i32 noundef %2)
  %35 = getelementptr inbounds nuw i8, ptr %25, i64 48
  %36 = load i32, ptr %35, align 8, !tbaa !13
  %37 = and i32 %36, -3
  store i32 %37, ptr %35, align 8, !tbaa !13
  ret void
}